target datalayout = "e-m:e-p270:32:32-p271:32:32-p272:64:64-i64:64-i128:128-f80:128-n8:16:32:64-S128"
target triple = "x86_64-pc-linux-gnu"

%"class.YAML::Emitter" = type { %"class.std::unique_ptr", %"class.YAML::ostream_wrapper" }
%"class.std::unique_ptr" = type { %"struct.std::__uniq_ptr_data" }
%"struct.std::__uniq_ptr_data" = type { %"class.std::__uniq_ptr_impl" }
%"class.std::__uniq_ptr_impl" = type { %"class.std::tuple" }
%"class.std::tuple" = type { %"struct.std::_Tuple_impl" }
%"struct.std::_Tuple_impl" = type { %"struct.std::_Head_base.1" }
%"struct.std::_Head_base.1" = type { ptr }
%"class.YAML::ostream_wrapper" = type <{ %"class.std::vector", ptr, i64, i64, i64, i8, [7 x i8] }>
%"class.std::vector" = type { %"struct.std::_Vector_base" }
%"struct.std::_Vector_base" = type { %"struct.std::_Vector_base<char, std::allocator<char>>::_Vector_impl" }
%"struct.std::_Vector_base<char, std::allocator<char>>::_Vector_impl" = type { %"struct.std::_Vector_base<char, std::allocator<char>>::_Vector_impl_data" }
%"struct.std::_Vector_base<char, std::allocator<char>>::_Vector_impl_data" = type { ptr, ptr, ptr }
%"class.YAML::EmitterState" = type { i8, %"class.std::__cxx11::basic_string", %"class.YAML::Setting", %"class.YAML::Setting", %"class.YAML::Setting", %"class.YAML::Setting", %"class.YAML::Setting", %"class.YAML::Setting", %"class.YAML::Setting", %"class.YAML::Setting.2", %"class.YAML::Setting.2", %"class.YAML::Setting.2", %"class.YAML::Setting", %"class.YAML::Setting", %"class.YAML::Setting", %"class.YAML::Setting.2", %"class.YAML::Setting.2", %"class.YAML::SettingChanges", %"class.YAML::SettingChanges", %"class.std::vector.8", i64, i8, i8, i8, i8, i64 }
%"class.std::__cxx11::basic_string" = type { %"struct.std::__cxx11::basic_string<char>::_Alloc_hider", i64, %union.anon }
%"struct.std::__cxx11::basic_string<char>::_Alloc_hider" = type { ptr }
%union.anon = type { i64, [8 x i8] }
%"class.YAML::Setting" = type { i32 }
%"class.YAML::Setting.2" = type { i64 }
%"class.YAML::SettingChanges" = type { %"class.std::vector.3" }
%"class.std::vector.3" = type { %"struct.std::_Vector_base.4" }
%"struct.std::_Vector_base.4" = type { %"struct.std::_Vector_base<std::unique_ptr<YAML::SettingChangeBase>, std::allocator<std::unique_ptr<YAML::SettingChangeBase>>>::_Vector_impl" }
%"struct.std::_Vector_base<std::unique_ptr<YAML::SettingChangeBase>, std::allocator<std::unique_ptr<YAML::SettingChangeBase>>>::_Vector_impl" = type { %"struct.std::_Vector_base<std::unique_ptr<YAML::SettingChangeBase>, std::allocator<std::unique_ptr<YAML::SettingChangeBase>>>::_Vector_impl_data" }
%"struct.std::_Vector_base<std::unique_ptr<YAML::SettingChangeBase>, std::allocator<std::unique_ptr<YAML::SettingChangeBase>>>::_Vector_impl_data" = type { ptr, ptr, ptr }
%"class.std::vector.8" = type { %"struct.std::_Vector_base.9" }
%"struct.std::_Vector_base.9" = type { %"struct.std::_Vector_base<std::unique_ptr<YAML::EmitterState::Group>, std::allocator<std::unique_ptr<YAML::EmitterState::Group>>>::_Vector_impl" }
%"struct.std::_Vector_base<std::unique_ptr<YAML::EmitterState::Group>, std::allocator<std::unique_ptr<YAML::EmitterState::Group>>>::_Vector_impl" = type { %"struct.std::_Vector_base<std::unique_ptr<YAML::EmitterState::Group>, std::allocator<std::unique_ptr<YAML::EmitterState::Group>>>::_Vector_impl_data" }
%"struct.std::_Vector_base<std::unique_ptr<YAML::EmitterState::Group>, std::allocator<std::unique_ptr<YAML::EmitterState::Group>>>::_Vector_impl_data" = type { ptr, ptr, ptr }
%"struct.YAML::IndentTo" = type { i64 }

@.str.1 = private unnamed_addr constant [2 x i8] c"\0A\00", align 1
@.str.12 = private unnamed_addr constant [2 x i8] c":\00", align 1
@.str.13 = private unnamed_addr constant [2 x i8] c" \00", align 1

; Function Attrs: mustprogress nounwind uwtable
define linkonce_odr noundef nonnull align 8 dereferenceable(8) ptr @_ZNSt10_Head_baseILm0EPN4YAML12EmitterStateELb0EE7_M_headERKS3_(ptr noundef nonnull align 8 dereferenceable(8) %0) #4 comdat align 2 {
  %2 = alloca ptr, align 8
  store ptr %0, ptr %2, align 8, !tbaa !167
  %3 = load ptr, ptr %2, align 8, !tbaa !167
  %4 = getelementptr inbounds nuw %"struct.std::_Head_base.1", ptr %3, i32 0, i32 0
  ret ptr %4
}

; Function Attrs: mustprogress nounwind uwtable
define linkonce_odr noundef nonnull align 8 dereferenceable(8) ptr @_ZNSt11_Tuple_implILm0EJPN4YAML12EmitterStateESt14default_deleteIS1_EEE7_M_headERKS5_(ptr noundef nonnull align 8 dereferenceable(8) %0) #4 comdat align 2 {
  %2 = alloca ptr, align 8
  store ptr %0, ptr %2, align 8, !tbaa !163
  %3 = load ptr, ptr %2, align 8, !tbaa !163
  %4 = call noundef nonnull align 8 dereferenceable(8) ptr @_ZNSt10_Head_baseILm0EPN4YAML12EmitterStateELb0EE7_M_headERKS3_(ptr noundef nonnull align 8 dereferenceable(8) %3) #14
  ret ptr %4
}

; Function Attrs: mustprogress nounwind uwtable
define linkonce_odr noundef nonnull align 8 dereferenceable(8) ptr @_ZSt12__get_helperILm0EPN4YAML12EmitterStateEJSt14default_deleteIS1_EEERKT0_RKSt11_Tuple_implIXT_EJS5_DpT1_EE(ptr noundef nonnull align 8 dereferenceable(8) %0) #4 comdat {
  %2 = alloca ptr, align 8
  store ptr %0, ptr %2, align 8, !tbaa !163
  %3 = load ptr, ptr %2, align 8, !tbaa !163
  %4 = call noundef nonnull align 8 dereferenceable(8) ptr @_ZNSt11_Tuple_implILm0EJPN4YAML12EmitterStateESt14default_deleteIS1_EEE7_M_headERKS5_(ptr noundef nonnull align 8 dereferenceable(8) %3) #14
  ret ptr %4
}

; Function Attrs: mustprogress nounwind uwtable
define linkonce_odr noundef nonnull align 8 dereferenceable(8) ptr @_ZSt3getILm0EJPN4YAML12EmitterStateESt14default_deleteIS1_EEERKNSt13tuple_elementIXT_ESt5tupleIJDpT0_EEE4typeERKS9_(ptr noundef nonnull align 8 dereferenceable(8) %0) #4 comdat {
  %2 = alloca ptr, align 8
  store ptr %0, ptr %2, align 8, !tbaa !161
  %3 = load ptr, ptr %2, align 8, !tbaa !161
  %4 = call noundef nonnull align 8 dereferenceable(8) ptr @_ZSt12__get_helperILm0EPN4YAML12EmitterStateEJSt14default_deleteIS1_EEERKT0_RKSt11_Tuple_implIXT_EJS5_DpT1_EE(ptr noundef nonnull align 8 dereferenceable(8) %3) #14
  ret ptr %4
}

; Function Attrs: inlinehint mustprogress uwtable
define linkonce_odr noundef nonnull align 8 dereferenceable(57) ptr @_ZN4YAMLlsERNS_15ostream_wrapperEc(ptr noundef nonnull align 8 dereferenceable(57) %0, i8 noundef signext %1) #7 comdat {
  %3 = alloca ptr, align 8
  %4 = alloca i8, align 1
  store ptr %0, ptr %3, align 8, !tbaa !17
  store i8 %1, ptr %4, align 1, !tbaa !29
  %5 = load ptr, ptr %3, align 8, !tbaa !17
  call void @_ZN4YAML15ostream_wrapper5writeEPKcm(ptr noundef nonnull align 8 dereferenceable(57) %5, ptr noundef %4, i64 noundef 1)
  %6 = load ptr, ptr %3, align 8, !tbaa !17
  ret ptr %6
}

; Function Attrs: mustprogress nounwind uwtable
define linkonce_odr noundef ptr @_ZNKSt15__uniq_ptr_implIN4YAML12EmitterStateESt14default_deleteIS1_EE6_M_ptrEv(ptr noundef nonnull align 8 dereferenceable(8) %0) #4 comdat align 2 {
  %2 = alloca ptr, align 8
  store ptr %0, ptr %2, align 8, !tbaa !159
  %3 = load ptr, ptr %2, align 8
  %4 = getelementptr inbounds nuw %"class.std::__uniq_ptr_impl", ptr %3, i32 0, i32 0
  %5 = call noundef nonnull align 8 dereferenceable(8) ptr @_ZSt3getILm0EJPN4YAML12EmitterStateESt14default_deleteIS1_EEERKNSt13tuple_elementIXT_ESt5tupleIJDpT0_EEE4typeERKS9_(ptr noundef nonnull align 8 dereferenceable(8) %4) #14
  %6 = load ptr, ptr %5, align 8, !tbaa !10
  ret ptr %6
}

; Function Attrs: inlinehint mustprogress uwtable
define linkonce_odr noundef nonnull align 8 dereferenceable(57) ptr @_ZN4YAMLlsERNS_15ostream_wrapperERKNS_8IndentToE(ptr noundef nonnull align 8 dereferenceable(57) %0, ptr noundef nonnull align 8 dereferenceable(8) %1) #7 comdat {
  %3 = alloca ptr, align 8
  %4 = alloca ptr, align 8
  store ptr %0, ptr %3, align 8, !tbaa !17
  store ptr %1, ptr %4, align 8, !tbaa !79
  br label %5

5:                                                ; preds = %12, %2
  %6 = load ptr, ptr %3, align 8, !tbaa !17
  %7 = call noundef i64 @_ZNK4YAML15ostream_wrapper3colEv(ptr noundef nonnull align 8 dereferenceable(57) %6)
  %8 = load ptr, ptr %4, align 8, !tbaa !79
  %9 = getelementptr inbounds nuw %"struct.YAML::IndentTo", ptr %8, i32 0, i32 0
  %10 = load i64, ptr %9, align 8, !tbaa !81
  %11 = icmp ult i64 %7, %10
  br i1 %11, label %12, label %15

12:                                               ; preds = %5
  %13 = load ptr, ptr %3, align 8, !tbaa !17
  %14 = call noundef nonnull align 8 dereferenceable(57) ptr @_ZN4YAMLlsERNS_15ostream_wrapperEc(ptr noundef nonnull align 8 dereferenceable(57) %13, i8 noundef signext 32)
  br label %5, !llvm.loop !83

15:                                               ; preds = %5
  %16 = load ptr, ptr %3, align 8, !tbaa !17
  ret ptr %16
}

; Function Attrs: mustprogress nounwind uwtable
define linkonce_odr void @_ZN4YAML8IndentToC2Em(ptr noundef nonnull align 8 dereferenceable(8) %0, i64 noundef %1) unnamed_addr #4 comdat align 2 {
  %3 = alloca ptr, align 8
  %4 = alloca i64, align 8
  store ptr %0, ptr %3, align 8, !tbaa !79
  store i64 %1, ptr %4, align 8, !tbaa !52
  %5 = load ptr, ptr %3, align 8
  %6 = getelementptr inbounds nuw %"struct.YAML::IndentTo", ptr %5, i32 0, i32 0
  %7 = load i64, ptr %4, align 8, !tbaa !52
  store i64 %7, ptr %6, align 8, !tbaa !81
  ret void
}

; Function Attrs: mustprogress nounwind uwtable
define linkonce_odr noundef i64 @_ZNK4YAML15ostream_wrapper3colEv(ptr noundef nonnull align 8 dereferenceable(57) %0) #4 comdat align 2 {
  %2 = alloca ptr, align 8
  store ptr %0, ptr %2, align 8, !tbaa !17
  %3 = load ptr, ptr %2, align 8
  %4 = getelementptr inbounds nuw %"class.YAML::ostream_wrapper", ptr %3, i32 0, i32 4
  %5 = load i64, ptr %4, align 8, !tbaa !74
  ret i64 %5
}

; Function Attrs: mustprogress nounwind uwtable
define linkonce_odr noundef zeroext i1 @_ZNK4YAML15ostream_wrapper7commentEv(ptr noundef nonnull align 8 dereferenceable(57) %0) #4 comdat align 2 {
  %2 = alloca ptr, align 8
  store ptr %0, ptr %2, align 8, !tbaa !17
  %3 = load ptr, ptr %2, align 8
  %4 = getelementptr inbounds nuw %"class.YAML::ostream_wrapper", ptr %3, i32 0, i32 5
  %5 = load i8, ptr %4, align 8, !tbaa !77, !range !48, !noundef !49
  %6 = trunc i8 %5 to i1
  ret i1 %6
}

; Function Attrs: mustprogress nounwind uwtable
define linkonce_odr noundef ptr @_ZNKSt10unique_ptrIN4YAML12EmitterStateESt14default_deleteIS1_EE3getEv(ptr noundef nonnull align 8 dereferenceable(8) %0) #4 comdat align 2 {
  %2 = alloca ptr, align 8
  store ptr %0, ptr %2, align 8, !tbaa !8
  %3 = load ptr, ptr %2, align 8
  %4 = getelementptr inbounds nuw %"class.std::unique_ptr", ptr %3, i32 0, i32 0
  %5 = call noundef ptr @_ZNKSt15__uniq_ptr_implIN4YAML12EmitterStateESt14default_deleteIS1_EE6_M_ptrEv(ptr noundef nonnull align 8 dereferenceable(8) %4) #14
  ret ptr %5
}

; Function Attrs: mustprogress uwtable
define void @_ZN4YAML7Emitter15SpaceOrIndentToEbm(ptr noundef nonnull align 8 dereferenceable(72) %0, i1 noundef zeroext %1, i64 noundef %2) #0 align 2 {
  %4 = alloca ptr, align 8
  %5 = alloca i8, align 1
  %6 = alloca i64, align 8
  %7 = alloca %"struct.YAML::IndentTo", align 8
  store ptr %0, ptr %4, align 8, !tbaa !3
  %8 = zext i1 %1 to i8
  store i8 %8, ptr %5, align 1, !tbaa !51
  store i64 %2, ptr %6, align 8, !tbaa !52
  %9 = load ptr, ptr %4, align 8
  %10 = getelementptr inbounds nuw %"class.YAML::Emitter", ptr %9, i32 0, i32 1
  %11 = call noundef zeroext i1 @_ZNK4YAML15ostream_wrapper7commentEv(ptr noundef nonnull align 8 dereferenceable(57) %10)
  br i1 %11, label %12, label %15

12:                                               ; preds = %3
  %13 = getelementptr inbounds nuw %"class.YAML::Emitter", ptr %9, i32 0, i32 1
  %14 = call noundef nonnull align 8 dereferenceable(57) ptr @_ZN4YAMLlsILm2EEERNS_15ostream_wrapperES2_RAT__Kc(ptr noundef nonnull align 8 dereferenceable(57) %13, ptr noundef nonnull align 1 dereferenceable(2) @.str.1)
  br label %15

15:                                               ; preds = %12, %3
  %16 = getelementptr inbounds nuw %"class.YAML::Emitter", ptr %9, i32 0, i32 1
  %17 = call noundef i64 @_ZNK4YAML15ostream_wrapper3colEv(ptr noundef nonnull align 8 dereferenceable(57) %16)
  %18 = icmp ugt i64 %17, 0
  br i1 %18, label %19, label %25

19:                                               ; preds = %15
  %20 = load i8, ptr %5, align 1, !tbaa !51, !range !48, !noundef !49
  %21 = trunc i8 %20 to i1
  br i1 %21, label %22, label %25

22:                                               ; preds = %19
  %23 = getelementptr inbounds nuw %"class.YAML::Emitter", ptr %9, i32 0, i32 1
  %24 = call noundef nonnull align 8 dereferenceable(57) ptr @_ZN4YAMLlsILm2EEERNS_15ostream_wrapperES2_RAT__Kc(ptr noundef nonnull align 8 dereferenceable(57) %23, ptr noundef nonnull align 1 dereferenceable(2) @.str.13)
  br label %25

25:                                               ; preds = %22, %19, %15
  %26 = getelementptr inbounds nuw %"class.YAML::Emitter", ptr %9, i32 0, i32 1
  call void @llvm.lifetime.start.p0(i64 8, ptr %7) #14
  %27 = load i64, ptr %6, align 8, !tbaa !52
  call void @_ZN4YAML8IndentToC2Em(ptr noundef nonnull align 8 dereferenceable(8) %7, i64 noundef %27)
  %28 = call noundef nonnull align 8 dereferenceable(57) ptr @_ZN4YAMLlsERNS_15ostream_wrapperERKNS_8IndentToE(ptr noundef nonnull align 8 dereferenceable(57) %26, ptr noundef nonnull align 8 dereferenceable(8) %7)
  call void @llvm.lifetime.end.p0(i64 8, ptr %7) #14
  ret void
}

; Function Attrs: inlinehint mustprogress uwtable
define linkonce_odr noundef nonnull align 8 dereferenceable(57) ptr @_ZN4YAMLlsILm2EEERNS_15ostream_wrapperES2_RAT__Kc(ptr noundef nonnull align 8 dereferenceable(57) %0, ptr noundef nonnull align 1 dereferenceable(2) %1) #7 comdat {
  %3 = alloca ptr, align 8
  %4 = alloca ptr, align 8
  store ptr %0, ptr %3, align 8, !tbaa !17
  store ptr %1, ptr %4, align 8, !tbaa !69
  %5 = load ptr, ptr %3, align 8, !tbaa !17
  %6 = load ptr, ptr %4, align 8, !tbaa !69
  %7 = getelementptr inbounds [2 x i8], ptr %6, i64 0, i64 0
  call void @_ZN4YAML15ostream_wrapper5writeEPKcm(ptr noundef nonnull align 8 dereferenceable(57) %5, ptr noundef %7, i64 noundef 1)
  %8 = load ptr, ptr %3, align 8, !tbaa !17
  ret ptr %8
}

; Function Attrs: mustprogress nounwind uwtable
define linkonce_odr noundef zeroext i1 @_ZNK4YAML12EmitterState8HasAliasEv(ptr noundef nonnull align 8 dereferenceable(224) %0) #4 comdat align 2 {
  %2 = alloca ptr, align 8
  store ptr %0, ptr %2, align 8, !tbaa !10
  %3 = load ptr, ptr %2, align 8
  %4 = getelementptr inbounds nuw %"class.YAML::EmitterState", ptr %3, i32 0, i32 22
  %5 = load i8, ptr %4, align 1, !tbaa !86, !range !48, !noundef !49
  %6 = trunc i8 %5 to i1
  ret i1 %6
}

; Function Attrs: mustprogress nounwind uwtable
define linkonce_odr noundef zeroext i1 @_ZNK4YAML12EmitterState12HasBegunNodeEv(ptr noundef nonnull align 8 dereferenceable(224) %0) #4 comdat align 2 {
  %2 = alloca ptr, align 8
  store ptr %0, ptr %2, align 8, !tbaa !10
  %3 = load ptr, ptr %2, align 8
  %4 = getelementptr inbounds nuw %"class.YAML::EmitterState", ptr %3, i32 0, i32 21
  %5 = load i8, ptr %4, align 8, !tbaa !72, !range !48, !noundef !49
  %6 = trunc i8 %5 to i1
  br i1 %6, label %15, label %7

7:                                                ; preds = %1
  %8 = getelementptr inbounds nuw %"class.YAML::EmitterState", ptr %3, i32 0, i32 23
  %9 = load i8, ptr %8, align 2, !tbaa !73, !range !48, !noundef !49
  %10 = trunc i8 %9 to i1
  br i1 %10, label %15, label %11

11:                                               ; preds = %7
  %12 = getelementptr inbounds nuw %"class.YAML::EmitterState", ptr %3, i32 0, i32 24
  %13 = load i8, ptr %12, align 1, !tbaa !78, !range !48, !noundef !49
  %14 = trunc i8 %13 to i1
  br label %15

15:                                               ; preds = %11, %7, %1
  %16 = phi i1 [ true, %7 ], [ true, %1 ], [ %14, %11 ]
  ret i1 %16
}

; Function Attrs: mustprogress nounwind uwtable
define linkonce_odr noundef i64 @_ZNK4YAML12EmitterState9CurIndentEv(ptr noundef nonnull align 8 dereferenceable(224) %0) #4 comdat align 2 {
  %2 = alloca ptr, align 8
  store ptr %0, ptr %2, align 8, !tbaa !10
  %3 = load ptr, ptr %2, align 8
  %4 = getelementptr inbounds nuw %"class.YAML::EmitterState", ptr %3, i32 0, i32 20
  %5 = load i64, ptr %4, align 8, !tbaa !85
  ret i64 %5
}

; Function Attrs: mustprogress nounwind uwtable
define linkonce_odr noundef ptr @_ZNKSt10unique_ptrIN4YAML12EmitterStateESt14default_deleteIS1_EEptEv(ptr noundef nonnull align 8 dereferenceable(8) %0) #4 comdat align 2 {
  %2 = alloca ptr, align 8
  store ptr %0, ptr %2, align 8, !tbaa !8
  %3 = load ptr, ptr %2, align 8
  %4 = call noundef ptr @_ZNKSt10unique_ptrIN4YAML12EmitterStateESt14default_deleteIS1_EE3getEv(ptr noundef nonnull align 8 dereferenceable(8) %3) #14
  ret ptr %4
}

; Function Attrs: mustprogress uwtable
define void @_ZN4YAML7Emitter29BlockMapPrepareSimpleKeyValueENS_15EmitterNodeType5valueE(ptr noundef nonnull align 8 dereferenceable(72) %0, i32 noundef %1) #0 align 2 {
  %3 = alloca ptr, align 8
  %4 = alloca i32, align 4
  %5 = alloca i64, align 8
  %6 = alloca i64, align 8
  store ptr %0, ptr %3, align 8, !tbaa !3
  store i32 %1, ptr %4, align 4, !tbaa !75
  %7 = load ptr, ptr %3, align 8
  call void @llvm.lifetime.start.p0(i64 8, ptr %5) #14
  %8 = getelementptr inbounds nuw %"class.YAML::Emitter", ptr %7, i32 0, i32 0
  %9 = call noundef ptr @_ZNKSt10unique_ptrIN4YAML12EmitterStateESt14default_deleteIS1_EEptEv(ptr noundef nonnull align 8 dereferenceable(8) %8) #14
  %10 = call noundef i64 @_ZNK4YAML12EmitterState9CurIndentEv(ptr noundef nonnull align 8 dereferenceable(224) %9)
  store i64 %10, ptr %5, align 8, !tbaa !52
  call void @llvm.lifetime.start.p0(i64 8, ptr %6) #14
  %11 = load i64, ptr %5, align 8, !tbaa !52
  %12 = getelementptr inbounds nuw %"class.YAML::Emitter", ptr %7, i32 0, i32 0
  %13 = call noundef ptr @_ZNKSt10unique_ptrIN4YAML12EmitterStateESt14default_deleteIS1_EEptEv(ptr noundef nonnull align 8 dereferenceable(8) %12) #14
  %14 = call noundef i64 @_ZNK4YAML12EmitterState14CurGroupIndentEv(ptr noundef nonnull align 8 dereferenceable(224) %13)
  %15 = add i64 %11, %14
  store i64 %15, ptr %6, align 8, !tbaa !52
  %16 = getelementptr inbounds nuw %"class.YAML::Emitter", ptr %7, i32 0, i32 0
  %17 = call noundef ptr @_ZNKSt10unique_ptrIN4YAML12EmitterStateESt14default_deleteIS1_EEptEv(ptr noundef nonnull align 8 dereferenceable(8) %16) #14
  %18 = call noundef zeroext i1 @_ZNK4YAML12EmitterState12HasBegunNodeEv(ptr noundef nonnull align 8 dereferenceable(224) %17)
  br i1 %18, label %29, label %19

19:                                               ; preds = %2
  %20 = getelementptr inbounds nuw %"class.YAML::Emitter", ptr %7, i32 0, i32 0
  %21 = call noundef ptr @_ZNKSt10unique_ptrIN4YAML12EmitterStateESt14default_deleteIS1_EEptEv(ptr noundef nonnull align 8 dereferenceable(8) %20) #14
  %22 = call noundef zeroext i1 @_ZNK4YAML12EmitterState8HasAliasEv(ptr noundef nonnull align 8 dereferenceable(224) %21)
  br i1 %22, label %23, label %26

23:                                               ; preds = %19
  %24 = getelementptr inbounds nuw %"class.YAML::Emitter", ptr %7, i32 0, i32 1
  %25 = call noundef nonnull align 8 dereferenceable(57) ptr @_ZN4YAMLlsILm2EEERNS_15ostream_wrapperES2_RAT__Kc(ptr noundef nonnull align 8 dereferenceable(57) %24, ptr noundef nonnull align 1 dereferenceable(2) @.str.13)
  br label %26

26:                                               ; preds = %23, %19
  %27 = getelementptr inbounds nuw %"class.YAML::Emitter", ptr %7, i32 0, i32 1
  %28 = call noundef nonnull align 8 dereferenceable(57) ptr @_ZN4YAMLlsILm2EEERNS_15ostream_wrapperES2_RAT__Kc(ptr noundef nonnull align 8 dereferenceable(57) %27, ptr noundef nonnull align 1 dereferenceable(2) @.str.12)
  br label %29

29:                                               ; preds = %26, %2
  %30 = load i32, ptr %4, align 4, !tbaa !75
  switch i32 %30, label %36 [
    i32 0, label %36
    i32 1, label %31
    i32 2, label %31
    i32 3, label %31
    i32 5, label %31
    i32 4, label %33
    i32 6, label %33
  ]

31:                                               ; preds = %29, %29, %29, %29
  %32 = load i64, ptr %6, align 8, !tbaa !52
  call void @_ZN4YAML7Emitter15SpaceOrIndentToEbm(ptr noundef nonnull align 8 dereferenceable(72) %7, i1 noundef zeroext true, i64 noundef %32)
  br label %36

33:                                               ; preds = %29, %29
  %34 = getelementptr inbounds nuw %"class.YAML::Emitter", ptr %7, i32 0, i32 1
  %35 = call noundef nonnull align 8 dereferenceable(57) ptr @_ZN4YAMLlsILm2EEERNS_15ostream_wrapperES2_RAT__Kc(ptr noundef nonnull align 8 dereferenceable(57) %34, ptr noundef nonnull align 1 dereferenceable(2) @.str.1)
  br label %36

36:                                               ; preds = %29, %33, %31, %29
  call void @llvm.lifetime.end.p0(i64 8, ptr %6) #14
  call void @llvm.lifetime.end.p0(i64 8, ptr %5) #14
  ret void
}