; Function Attrs: mustprogress uwtable
define void @_ZN4YAML7Emitter29BlockMapPrepareSimpleKeyValueENS_15EmitterNodeType5valueE(ptr noundef nonnull align 8 dereferenceable(72) %0, i32 noundef %1) local_unnamed_addr #0 align 2 {
  %3 = alloca i8, align 1
  %4 = load ptr, ptr %0, align 8, !tbaa !3
  %5 = getelementptr inbounds nuw i8, ptr %4, i64 200
  %6 = load i64, ptr %5, align 8, !tbaa !53
  %7 = tail call noundef i64 @_ZNK4YAML12EmitterState14CurGroupIndentEv(ptr noundef nonnull align 8 dereferenceable(224) %4)
  %8 = add i64 %7, %6
  %9 = load ptr, ptr %0, align 8, !tbaa !3
  %10 = getelementptr inbounds nuw i8, ptr %9, i64 208
  %11 = load i8, ptr %10, align 8, !tbaa !48, !range !39, !noundef !40
  %12 = trunc nuw i8 %11 to i1
  br i1 %12, label %_ZNK4YAML12EmitterState12HasBegunNodeEv.exit.thread, label %13

13:                                               ; preds = %2
  %14 = getelementptr inbounds nuw i8, ptr %9, i64 210
  %15 = load i8, ptr %14, align 2, !tbaa !49, !range !39, !noundef !40
  %16 = trunc nuw i8 %15 to i1
  br i1 %16, label %_ZNK4YAML12EmitterState12HasBegunNodeEv.exit.thread, label %_ZNK4YAML12EmitterState12HasBegunNodeEv.exit

_ZNK4YAML12EmitterState12HasBegunNodeEv.exit:     ; preds = %13
  %17 = getelementptr inbounds nuw i8, ptr %9, i64 211
  %18 = load i8, ptr %17, align 1, !tbaa !52, !range !39, !noundef !40
  %19 = trunc nuw i8 %18 to i1
  br i1 %19, label %_ZNK4YAML12EmitterState12HasBegunNodeEv.exit.thread, label %20

20:                                               ; preds = %_ZNK4YAML12EmitterState12HasBegunNodeEv.exit
  %21 = getelementptr inbounds nuw i8, ptr %9, i64 209
  %22 = load i8, ptr %21, align 1, !tbaa !66, !range !39, !noundef !40
  %23 = trunc nuw i8 %22 to i1
  br i1 %23, label %24, label %26

24:                                               ; preds = %20
  %25 = getelementptr inbounds nuw i8, ptr %0, i64 8
  tail call void @_ZN4YAML15ostream_wrapper5writeEPKcm(ptr noundef nonnull align 8 dereferenceable(57) %25, ptr noundef nonnull @.str.13, i64 noundef 1)
  br label %26

26:                                               ; preds = %24, %20
  %27 = getelementptr inbounds nuw i8, ptr %0, i64 8
  tail call void @_ZN4YAML15ostream_wrapper5writeEPKcm(ptr noundef nonnull align 8 dereferenceable(57) %27, ptr noundef nonnull @.str.12, i64 noundef 1)
  br label %_ZNK4YAML12EmitterState12HasBegunNodeEv.exit.thread

_ZNK4YAML12EmitterState12HasBegunNodeEv.exit.thread: ; preds = %2, %13, %26, %_ZNK4YAML12EmitterState12HasBegunNodeEv.exit
  switch i32 %1, label %_ZN4YAML7Emitter15SpaceOrIndentToEbm.exit [
    i32 6, label %43
    i32 1, label %28
    i32 2, label %28
    i32 3, label %28
    i32 5, label %28
    i32 4, label %43
  ]

28:                                               ; preds = %_ZNK4YAML12EmitterState12HasBegunNodeEv.exit.thread, %_ZNK4YAML12EmitterState12HasBegunNodeEv.exit.thread, %_ZNK4YAML12EmitterState12HasBegunNodeEv.exit.thread, %_ZNK4YAML12EmitterState12HasBegunNodeEv.exit.thread
  %29 = getelementptr inbounds nuw i8, ptr %0, i64 8
  %30 = getelementptr inbounds nuw i8, ptr %0, i64 64
  %31 = load i8, ptr %30, align 8, !tbaa !51, !range !39, !noundef !40
  %32 = trunc nuw i8 %31 to i1
  br i1 %32, label %33, label %34

33:                                               ; preds = %28
  tail call void @_ZN4YAML15ostream_wrapper5writeEPKcm(ptr noundef nonnull align 8 dereferenceable(57) %29, ptr noundef nonnull @.str.1, i64 noundef 1)
  br label %34

34:                                               ; preds = %33, %28
  %35 = getelementptr inbounds nuw i8, ptr %0, i64 56
  %36 = load i64, ptr %35, align 8, !tbaa !50
  %.not.i.not = icmp eq i64 %36, 0
  br i1 %.not.i.not, label %38, label %37

37:                                               ; preds = %34
  tail call void @_ZN4YAML15ostream_wrapper5writeEPKcm(ptr noundef nonnull align 8 dereferenceable(57) %29, ptr noundef nonnull @.str.13, i64 noundef 1)
  %.pre.i = load i64, ptr %35, align 8, !tbaa !50
  br label %38

38:                                               ; preds = %37, %34
  %39 = phi i64 [ 0, %34 ], [ %.pre.i, %37 ]
  %40 = icmp ult i64 %39, %8
  br i1 %40, label %.lr.ph.i.i, label %_ZN4YAML7Emitter15SpaceOrIndentToEbm.exit

.lr.ph.i.i:                                       ; preds = %38, %.lr.ph.i.i
  call void @llvm.lifetime.start.p0(i64 1, ptr nonnull %3)
  store i8 32, ptr %3, align 1, !tbaa !20
  call void @_ZN4YAML15ostream_wrapper5writeEPKcm(ptr noundef nonnull align 8 dereferenceable(57) %29, ptr noundef nonnull %3, i64 noundef 1)
  call void @llvm.lifetime.end.p0(i64 1, ptr nonnull %3)
  %41 = load i64, ptr %35, align 8, !tbaa !50
  %42 = icmp ult i64 %41, %8
  br i1 %42, label %.lr.ph.i.i, label %_ZN4YAML7Emitter15SpaceOrIndentToEbm.exit, !llvm.loop !54

43:                                               ; preds = %_ZNK4YAML12EmitterState12HasBegunNodeEv.exit.thread, %_ZNK4YAML12EmitterState12HasBegunNodeEv.exit.thread
  %44 = getelementptr inbounds nuw i8, ptr %0, i64 8
  tail call void @_ZN4YAML15ostream_wrapper5writeEPKcm(ptr noundef nonnull align 8 dereferenceable(57) %44, ptr noundef nonnull @.str.1, i64 noundef 1)
  br label %_ZN4YAML7Emitter15SpaceOrIndentToEbm.exit

_ZN4YAML7Emitter15SpaceOrIndentToEbm.exit:        ; preds = %.lr.ph.i.i, %38, %43, %_ZNK4YAML12EmitterState12HasBegunNodeEv.exit.thread
  ret void
}